target datalayout = "e-m:e-p270:32:32-p271:32:32-p272:64:64-i64:64-i128:128-f80:128-n8:16:32:64-S128"
target triple = "x86_64-pc-linux-gnu"

%struct.H5E_entry_t = type { i8, %struct.H5E_error2_t }
%struct.H5E_error2_t = type { i64, i64, i64, i32, ptr, ptr, ptr }

@H5E_ERR_CLS_g = global i64 -1, align 8
@H5E_ERROR_g = global i64 -1, align 8
@H5E_CANTINC_g = global i64 -1, align 8
@H5E_CANTCOPY_g = global i64 -1, align 8
@H5E_first_maj_id_g = global i64 -1, align 8
@H5E_last_maj_id_g = global i64 -1, align 8
@H5E_first_min_id_g = global i64 -1, align 8
@H5E_last_min_id_g = global i64 -1, align 8
@H5E_init_g = external global i8, align 1
@H5_libterm_g = external global i8, align 1
@.str.1 = private unnamed_addr constant [100 x i8] c"generated/home/dtcxzyw/WorkSpace/Projects/compilers/llvm-opt-benchmark/bench/hdf5/hdf5/src/H5Eint.c\00", align 1
@__func__.H5E__copy_stack_entry = private unnamed_addr constant [22 x i8] c"H5E__copy_stack_entry\00", align 1
@.str.400 = private unnamed_addr constant [45 x i8] c"unable to increment ref count on error class\00", align 1
@.str.401 = private unnamed_addr constant [47 x i8] c"unable to increment ref count on error message\00", align 1
@.str.402 = private unnamed_addr constant [30 x i8] c"unable to duplicate file name\00", align 1
@.str.403 = private unnamed_addr constant [34 x i8] c"unable to duplicate function name\00", align 1
@.str.404 = private unnamed_addr constant [38 x i8] c"unable to duplicate error description\00", align 1

; Function Attrs: nounwind uwtable
define internal i32 @H5E__copy_stack_entry(ptr noundef %0, ptr noundef %1) #0 {
  %3 = alloca ptr, align 8
  %4 = alloca ptr, align 8
  %5 = alloca i32, align 4
  %6 = alloca i8, align 1
  store ptr %0, ptr %3, align 8, !tbaa !50
  store ptr %1, ptr %4, align 8, !tbaa !50
  call void @llvm.lifetime.start.p0(i64 4, ptr %5) #9
  store i32 0, ptr %5, align 4, !tbaa !3
  call void @llvm.lifetime.start.p0(i64 1, ptr %6) #9
  store i8 0, ptr %6, align 1, !tbaa !7
  %7 = load i8, ptr @H5E_init_g, align 1, !tbaa !7, !range !9, !noundef !10
  %8 = trunc i8 %7 to i1
  br i1 %8, label %13, label %9

9:                                                ; preds = %2
  %10 = load i8, ptr @H5_libterm_g, align 1, !tbaa !7, !range !9, !noundef !10
  %11 = trunc i8 %10 to i1
  %12 = xor i1 %11, true
  br label %13

13:                                               ; preds = %9, %2
  %14 = phi i1 [ true, %2 ], [ %12, %9 ]
  %15 = xor i1 %14, true
  %16 = xor i1 %15, true
  %17 = zext i1 %16 to i32
  %18 = sext i32 %17 to i64
  %19 = call i64 @llvm.expect.i64(i64 %18, i64 1)
  %20 = icmp ne i64 %19, 0
  br i1 %20, label %21, label %234

21:                                               ; preds = %13
  %22 = load ptr, ptr %3, align 8, !tbaa !50
  %23 = load ptr, ptr %4, align 8, !tbaa !50
  call void @llvm.memcpy.p0.p0.i64(ptr align 8 %22, ptr align 8 %23, i64 64, i1 false), !tbaa.struct !52
  %24 = load ptr, ptr %3, align 8, !tbaa !50
  %25 = getelementptr inbounds nuw %struct.H5E_entry_t, ptr %24, i32 0, i32 0
  %26 = load i8, ptr %25, align 8, !tbaa !53, !range !9, !noundef !10
  %27 = trunc i8 %26 to i1
  br i1 %27, label %28, label %203

28:                                               ; preds = %21
  %29 = load ptr, ptr %3, align 8, !tbaa !50
  %30 = getelementptr inbounds nuw %struct.H5E_entry_t, ptr %29, i32 0, i32 1
  %31 = getelementptr inbounds nuw %struct.H5E_error2_t, ptr %30, i32 0, i32 0
  %32 = load i64, ptr %31, align 8, !tbaa !56
  %33 = load i64, ptr @H5E_ERR_CLS_g, align 8, !tbaa !11
  %34 = icmp ne i64 %32, %33
  br i1 %34, label %35, label %62

35:                                               ; preds = %28
  %36 = load ptr, ptr %3, align 8, !tbaa !50
  %37 = getelementptr inbounds nuw %struct.H5E_entry_t, ptr %36, i32 0, i32 1
  %38 = getelementptr inbounds nuw %struct.H5E_error2_t, ptr %37, i32 0, i32 0
  %39 = load i64, ptr %38, align 8, !tbaa !56
  %40 = call i32 @H5I_inc_ref(i64 noundef %39, i1 noundef zeroext false)
  %41 = icmp slt i32 %40, 0
  br i1 %41, label %42, label %61

42:                                               ; preds = %35
  br label %43

43:                                               ; preds = %42
  br label %44

44:                                               ; preds = %43
  br label %45

45:                                               ; preds = %44
  %46 = load i64, ptr @H5E_ERROR_g, align 8, !tbaa !11
  %47 = load i64, ptr @H5E_CANTINC_g, align 8, !tbaa !11
  %48 = call i32 (ptr, ptr, i32, i64, i64, ptr, ...) @H5E_printf_stack(ptr noundef @.str.1, ptr noundef @__func__.H5E__copy_stack_entry, i32 noundef 1665, i64 noundef %46, i64 noundef %47, ptr noundef @.str.400)
  br label %49

49:                                               ; preds = %45
  br label %50

50:                                               ; preds = %49
  store i8 1, ptr %6, align 1, !tbaa !7
  %51 = load i8, ptr %6, align 1, !tbaa !7, !range !9, !noundef !10
  %52 = trunc i8 %51 to i1
  %53 = zext i1 %52 to i8
  store i8 %53, ptr %6, align 1, !tbaa !7
  br label %54

54:                                               ; preds = %50
  br label %55

55:                                               ; preds = %54
  br label %56

56:                                               ; preds = %55
  store i32 -1, ptr %5, align 4, !tbaa !3
  br label %233

57:                                               ; No predecessors!
  br label %58

58:                                               ; preds = %57
  br label %59

59:                                               ; preds = %58
  br label %60

60:                                               ; preds = %59
  br label %61

61:                                               ; preds = %60, %35
  br label %62

62:                                               ; preds = %61, %28
  %63 = load ptr, ptr %3, align 8, !tbaa !50
  %64 = getelementptr inbounds nuw %struct.H5E_entry_t, ptr %63, i32 0, i32 1
  %65 = getelementptr inbounds nuw %struct.H5E_error2_t, ptr %64, i32 0, i32 1
  %66 = load i64, ptr %65, align 8, !tbaa !57
  %67 = load i64, ptr @H5E_first_maj_id_g, align 8, !tbaa !11
  %68 = icmp slt i64 %66, %67
  br i1 %68, label %76, label %69

69:                                               ; preds = %62
  %70 = load ptr, ptr %3, align 8, !tbaa !50
  %71 = getelementptr inbounds nuw %struct.H5E_entry_t, ptr %70, i32 0, i32 1
  %72 = getelementptr inbounds nuw %struct.H5E_error2_t, ptr %71, i32 0, i32 1
  %73 = load i64, ptr %72, align 8, !tbaa !57
  %74 = load i64, ptr @H5E_last_maj_id_g, align 8, !tbaa !11
  %75 = icmp sgt i64 %73, %74
  br i1 %75, label %76, label %103

76:                                               ; preds = %69, %62
  %77 = load ptr, ptr %3, align 8, !tbaa !50
  %78 = getelementptr inbounds nuw %struct.H5E_entry_t, ptr %77, i32 0, i32 1
  %79 = getelementptr inbounds nuw %struct.H5E_error2_t, ptr %78, i32 0, i32 1
  %80 = load i64, ptr %79, align 8, !tbaa !57
  %81 = call i32 @H5I_inc_ref(i64 noundef %80, i1 noundef zeroext false)
  %82 = icmp slt i32 %81, 0
  br i1 %82, label %83, label %102

83:                                               ; preds = %76
  br label %84

84:                                               ; preds = %83
  br label %85

85:                                               ; preds = %84
  br label %86

86:                                               ; preds = %85
  %87 = load i64, ptr @H5E_ERROR_g, align 8, !tbaa !11
  %88 = load i64, ptr @H5E_CANTINC_g, align 8, !tbaa !11
  %89 = call i32 (ptr, ptr, i32, i64, i64, ptr, ...) @H5E_printf_stack(ptr noundef @.str.1, ptr noundef @__func__.H5E__copy_stack_entry, i32 noundef 1668, i64 noundef %87, i64 noundef %88, ptr noundef @.str.401)
  br label %90

90:                                               ; preds = %86
  br label %91

91:                                               ; preds = %90
  store i8 1, ptr %6, align 1, !tbaa !7
  %92 = load i8, ptr %6, align 1, !tbaa !7, !range !9, !noundef !10
  %93 = trunc i8 %92 to i1
  %94 = zext i1 %93 to i8
  store i8 %94, ptr %6, align 1, !tbaa !7
  br label %95

95:                                               ; preds = %91
  br label %96

96:                                               ; preds = %95
  br label %97

97:                                               ; preds = %96
  store i32 -1, ptr %5, align 4, !tbaa !3
  br label %233

98:                                               ; No predecessors!
  br label %99

99:                                               ; preds = %98
  br label %100

100:                                              ; preds = %99
  br label %101

101:                                              ; preds = %100
  br label %102

102:                                              ; preds = %101, %76
  br label %103

103:                                              ; preds = %102, %69
  %104 = load ptr, ptr %3, align 8, !tbaa !50
  %105 = getelementptr inbounds nuw %struct.H5E_entry_t, ptr %104, i32 0, i32 1
  %106 = getelementptr inbounds nuw %struct.H5E_error2_t, ptr %105, i32 0, i32 2
  %107 = load i64, ptr %106, align 8, !tbaa !58
  %108 = load i64, ptr @H5E_first_min_id_g, align 8, !tbaa !11
  %109 = icmp slt i64 %107, %108
  br i1 %109, label %117, label %110

110:                                              ; preds = %103
  %111 = load ptr, ptr %3, align 8, !tbaa !50
  %112 = getelementptr inbounds nuw %struct.H5E_entry_t, ptr %111, i32 0, i32 1
  %113 = getelementptr inbounds nuw %struct.H5E_error2_t, ptr %112, i32 0, i32 2
  %114 = load i64, ptr %113, align 8, !tbaa !58
  %115 = load i64, ptr @H5E_last_min_id_g, align 8, !tbaa !11
  %116 = icmp sgt i64 %114, %115
  br i1 %116, label %117, label %144

117:                                              ; preds = %110, %103
  %118 = load ptr, ptr %3, align 8, !tbaa !50
  %119 = getelementptr inbounds nuw %struct.H5E_entry_t, ptr %118, i32 0, i32 1
  %120 = getelementptr inbounds nuw %struct.H5E_error2_t, ptr %119, i32 0, i32 2
  %121 = load i64, ptr %120, align 8, !tbaa !58
  %122 = call i32 @H5I_inc_ref(i64 noundef %121, i1 noundef zeroext false)
  %123 = icmp slt i32 %122, 0
  br i1 %123, label %124, label %143

124:                                              ; preds = %117
  br label %125

125:                                              ; preds = %124
  br label %126

126:                                              ; preds = %125
  br label %127

127:                                              ; preds = %126
  %128 = load i64, ptr @H5E_ERROR_g, align 8, !tbaa !11
  %129 = load i64, ptr @H5E_CANTINC_g, align 8, !tbaa !11
  %130 = call i32 (ptr, ptr, i32, i64, i64, ptr, ...) @H5E_printf_stack(ptr noundef @.str.1, ptr noundef @__func__.H5E__copy_stack_entry, i32 noundef 1671, i64 noundef %128, i64 noundef %129, ptr noundef @.str.401)
  br label %131

131:                                              ; preds = %127
  br label %132

132:                                              ; preds = %131
  store i8 1, ptr %6, align 1, !tbaa !7
  %133 = load i8, ptr %6, align 1, !tbaa !7, !range !9, !noundef !10
  %134 = trunc i8 %133 to i1
  %135 = zext i1 %134 to i8
  store i8 %135, ptr %6, align 1, !tbaa !7
  br label %136

136:                                              ; preds = %132
  br label %137

137:                                              ; preds = %136
  br label %138

138:                                              ; preds = %137
  store i32 -1, ptr %5, align 4, !tbaa !3
  br label %233

139:                                              ; No predecessors!
  br label %140

140:                                              ; preds = %139
  br label %141

141:                                              ; preds = %140
  br label %142

142:                                              ; preds = %141
  br label %143

143:                                              ; preds = %142, %117
  br label %144

144:                                              ; preds = %143, %110
  %145 = load ptr, ptr %4, align 8, !tbaa !50
  %146 = getelementptr inbounds nuw %struct.H5E_entry_t, ptr %145, i32 0, i32 1
  %147 = getelementptr inbounds nuw %struct.H5E_error2_t, ptr %146, i32 0, i32 5
  %148 = load ptr, ptr %147, align 8, !tbaa !59
  %149 = call noalias ptr @strdup(ptr noundef %148) #9
  %150 = load ptr, ptr %3, align 8, !tbaa !50
  %151 = getelementptr inbounds nuw %struct.H5E_entry_t, ptr %150, i32 0, i32 1
  %152 = getelementptr inbounds nuw %struct.H5E_error2_t, ptr %151, i32 0, i32 5
  store ptr %149, ptr %152, align 8, !tbaa !59
  %153 = icmp eq ptr null, %149
  br i1 %153, label %154, label %173

154:                                              ; preds = %144
  br label %155

155:                                              ; preds = %154
  br label %156

156:                                              ; preds = %155
  br label %157

157:                                              ; preds = %156
  %158 = load i64, ptr @H5E_ERROR_g, align 8, !tbaa !11
  %159 = load i64, ptr @H5E_CANTCOPY_g, align 8, !tbaa !11
  %160 = call i32 (ptr, ptr, i32, i64, i64, ptr, ...) @H5E_printf_stack(ptr noundef @.str.1, ptr noundef @__func__.H5E__copy_stack_entry, i32 noundef 1676, i64 noundef %158, i64 noundef %159, ptr noundef @.str.402)
  br label %161

161:                                              ; preds = %157
  br label %162

162:                                              ; preds = %161
  store i8 1, ptr %6, align 1, !tbaa !7
  %163 = load i8, ptr %6, align 1, !tbaa !7, !range !9, !noundef !10
  %164 = trunc i8 %163 to i1
  %165 = zext i1 %164 to i8
  store i8 %165, ptr %6, align 1, !tbaa !7
  br label %166

166:                                              ; preds = %162
  br label %167

167:                                              ; preds = %166
  br label %168

168:                                              ; preds = %167
  store i32 -1, ptr %5, align 4, !tbaa !3
  br label %233

169:                                              ; No predecessors!
  br label %170

170:                                              ; preds = %169
  br label %171

171:                                              ; preds = %170
  br label %172

172:                                              ; preds = %171
  br label %173

173:                                              ; preds = %172, %144
  %174 = load ptr, ptr %4, align 8, !tbaa !50
  %175 = getelementptr inbounds nuw %struct.H5E_entry_t, ptr %174, i32 0, i32 1
  %176 = getelementptr inbounds nuw %struct.H5E_error2_t, ptr %175, i32 0, i32 4
  %177 = load ptr, ptr %176, align 8, !tbaa !60
  %178 = call noalias ptr @strdup(ptr noundef %177) #9
  %179 = load ptr, ptr %3, align 8, !tbaa !50
  %180 = getelementptr inbounds nuw %struct.H5E_entry_t, ptr %179, i32 0, i32 1
  %181 = getelementptr inbounds nuw %struct.H5E_error2_t, ptr %180, i32 0, i32 4
  store ptr %178, ptr %181, align 8, !tbaa !60
  %182 = icmp eq ptr null, %178
  br i1 %182, label %183, label %202

183:                                              ; preds = %173
  br label %184

184:                                              ; preds = %183
  br label %185

185:                                              ; preds = %184
  br label %186

186:                                              ; preds = %185
  %187 = load i64, ptr @H5E_ERROR_g, align 8, !tbaa !11
  %188 = load i64, ptr @H5E_CANTCOPY_g, align 8, !tbaa !11
  %189 = call i32 (ptr, ptr, i32, i64, i64, ptr, ...) @H5E_printf_stack(ptr noundef @.str.1, ptr noundef @__func__.H5E__copy_stack_entry, i32 noundef 1678, i64 noundef %187, i64 noundef %188, ptr noundef @.str.403)
  br label %190

190:                                              ; preds = %186
  br label %191

191:                                              ; preds = %190
  store i8 1, ptr %6, align 1, !tbaa !7
  %192 = load i8, ptr %6, align 1, !tbaa !7, !range !9, !noundef !10
  %193 = trunc i8 %192 to i1
  %194 = zext i1 %193 to i8
  store i8 %194, ptr %6, align 1, !tbaa !7
  br label %195

195:                                              ; preds = %191
  br label %196

196:                                              ; preds = %195
  br label %197

197:                                              ; preds = %196
  store i32 -1, ptr %5, align 4, !tbaa !3
  br label %233

198:                                              ; No predecessors!
  br label %199

199:                                              ; preds = %198
  br label %200

200:                                              ; preds = %199
  br label %201

201:                                              ; preds = %200
  br label %202

202:                                              ; preds = %201, %173
  br label %203

203:                                              ; preds = %202, %21
  %204 = load ptr, ptr %4, align 8, !tbaa !50
  %205 = getelementptr inbounds nuw %struct.H5E_entry_t, ptr %204, i32 0, i32 1
  %206 = getelementptr inbounds nuw %struct.H5E_error2_t, ptr %205, i32 0, i32 6
  %207 = load ptr, ptr %206, align 8, !tbaa !61
  %208 = call noalias ptr @strdup(ptr noundef %207) #9
  %209 = load ptr, ptr %3, align 8, !tbaa !50
  %210 = getelementptr inbounds nuw %struct.H5E_entry_t, ptr %209, i32 0, i32 1
  %211 = getelementptr inbounds nuw %struct.H5E_error2_t, ptr %210, i32 0, i32 6
  store ptr %208, ptr %211, align 8, !tbaa !61
  %212 = icmp eq ptr null, %208
  br i1 %212, label %213, label %232

213:                                              ; preds = %203
  br label %214

214:                                              ; preds = %213
  br label %215

215:                                              ; preds = %214
  br label %216

216:                                              ; preds = %215
  %217 = load i64, ptr @H5E_ERROR_g, align 8, !tbaa !11
  %218 = load i64, ptr @H5E_CANTCOPY_g, align 8, !tbaa !11
  %219 = call i32 (ptr, ptr, i32, i64, i64, ptr, ...) @H5E_printf_stack(ptr noundef @.str.1, ptr noundef @__func__.H5E__copy_stack_entry, i32 noundef 1681, i64 noundef %217, i64 noundef %218, ptr noundef @.str.404)
  br label %220

220:                                              ; preds = %216
  br label %221

221:                                              ; preds = %220
  store i8 1, ptr %6, align 1, !tbaa !7
  %222 = load i8, ptr %6, align 1, !tbaa !7, !range !9, !noundef !10
  %223 = trunc i8 %222 to i1
  %224 = zext i1 %223 to i8
  store i8 %224, ptr %6, align 1, !tbaa !7
  br label %225

225:                                              ; preds = %221
  br label %226

226:                                              ; preds = %225
  br label %227

227:                                              ; preds = %226
  store i32 -1, ptr %5, align 4, !tbaa !3
  br label %233

228:                                              ; No predecessors!
  br label %229

229:                                              ; preds = %228
  br label %230

230:                                              ; preds = %229
  br label %231

231:                                              ; preds = %230
  br label %232

232:                                              ; preds = %231, %203
  br label %233

233:                                              ; preds = %232, %227, %197, %168, %138, %97, %56
  br label %234

234:                                              ; preds = %233, %13
  %235 = load i32, ptr %5, align 4, !tbaa !3
  call void @llvm.lifetime.end.p0(i64 1, ptr %6) #9
  call void @llvm.lifetime.end.p0(i64 4, ptr %5) #9
  ret i32 %235
}