; Function Attrs: nounwind uwtable
define internal fastcc range(i32 -1, 1) i32 @H5E__copy_stack_entry(ptr noundef captures(none) %0, ptr noundef readonly captures(none) %1) unnamed_addr #0 {
  %3 = load i8, ptr @H5E_init_g, align 1, !tbaa !3, !range !7, !noundef !8
  %4 = trunc nuw i8 %3 to i1
  %5 = load i8, ptr @H5_libterm_g, align 1, !range !7
  %6 = trunc nuw i8 %5 to i1
  %7 = xor i1 %6, true
  %8 = select i1 %4, i1 true, i1 %7
  br i1 %8, label %9, label %81, !prof !9

9:                                                ; preds = %2
  tail call void @llvm.memcpy.p0.p0.i64(ptr noundef nonnull align 8 dereferenceable(64) %0, ptr noundef nonnull align 8 dereferenceable(64) %1, i64 64, i1 false), !tbaa.struct !55
  %10 = load i8, ptr %0, align 8, !tbaa !18, !range !7, !noundef !8
  %11 = trunc nuw i8 %10 to i1
  br i1 %11, label %12, label %71

12:                                               ; preds = %9
  %13 = getelementptr inbounds nuw i8, ptr %0, i64 8
  %14 = load i64, ptr %13, align 8, !tbaa !56
  %15 = load i64, ptr @H5E_ERR_CLS_g, align 8, !tbaa !10
  %.not = icmp eq i64 %14, %15
  br i1 %.not, label %23, label %16

16:                                               ; preds = %12
  %17 = tail call i32 @H5I_inc_ref(i64 noundef %14, i1 noundef zeroext false) #16
  %18 = icmp slt i32 %17, 0
  br i1 %18, label %19, label %23

19:                                               ; preds = %16
  %20 = load i64, ptr @H5E_ERROR_g, align 8, !tbaa !10
  %21 = load i64, ptr @H5E_CANTINC_g, align 8, !tbaa !10
  %22 = tail call i32 (ptr, ptr, i32, i64, i64, ptr, ...) @H5E_printf_stack(ptr noundef nonnull @.str.1, ptr noundef nonnull @__func__.H5E__copy_stack_entry, i32 noundef 1665, i64 noundef %20, i64 noundef %21, ptr noundef nonnull @.str.400)
  br label %81

23:                                               ; preds = %16, %12
  %24 = getelementptr inbounds nuw i8, ptr %0, i64 16
  %25 = load i64, ptr %24, align 8, !tbaa !57
  %26 = load i64, ptr @H5E_first_maj_id_g, align 8, !tbaa !10
  %27 = icmp slt i64 %25, %26
  %28 = load i64, ptr @H5E_last_maj_id_g, align 8
  %29 = icmp sgt i64 %25, %28
  %or.cond = select i1 %27, i1 true, i1 %29
  br i1 %or.cond, label %30, label %37

30:                                               ; preds = %23
  %31 = tail call i32 @H5I_inc_ref(i64 noundef %25, i1 noundef zeroext false) #16
  %32 = icmp slt i32 %31, 0
  br i1 %32, label %33, label %37

33:                                               ; preds = %30
  %34 = load i64, ptr @H5E_ERROR_g, align 8, !tbaa !10
  %35 = load i64, ptr @H5E_CANTINC_g, align 8, !tbaa !10
  %36 = tail call i32 (ptr, ptr, i32, i64, i64, ptr, ...) @H5E_printf_stack(ptr noundef nonnull @.str.1, ptr noundef nonnull @__func__.H5E__copy_stack_entry, i32 noundef 1668, i64 noundef %34, i64 noundef %35, ptr noundef nonnull @.str.401)
  br label %81

37:                                               ; preds = %23, %30
  %38 = getelementptr inbounds nuw i8, ptr %0, i64 24
  %39 = load i64, ptr %38, align 8, !tbaa !58
  %40 = load i64, ptr @H5E_first_min_id_g, align 8, !tbaa !10
  %41 = icmp slt i64 %39, %40
  %42 = load i64, ptr @H5E_last_min_id_g, align 8
  %43 = icmp sgt i64 %39, %42
  %or.cond28 = select i1 %41, i1 true, i1 %43
  br i1 %or.cond28, label %44, label %51

44:                                               ; preds = %37
  %45 = tail call i32 @H5I_inc_ref(i64 noundef %39, i1 noundef zeroext false) #16
  %46 = icmp slt i32 %45, 0
  br i1 %46, label %47, label %51

47:                                               ; preds = %44
  %48 = load i64, ptr @H5E_ERROR_g, align 8, !tbaa !10
  %49 = load i64, ptr @H5E_CANTINC_g, align 8, !tbaa !10
  %50 = tail call i32 (ptr, ptr, i32, i64, i64, ptr, ...) @H5E_printf_stack(ptr noundef nonnull @.str.1, ptr noundef nonnull @__func__.H5E__copy_stack_entry, i32 noundef 1671, i64 noundef %48, i64 noundef %49, ptr noundef nonnull @.str.401)
  br label %81

51:                                               ; preds = %37, %44
  %52 = getelementptr inbounds nuw i8, ptr %1, i64 48
  %53 = load ptr, ptr %52, align 8, !tbaa !59
  %54 = tail call noalias ptr @strdup(ptr noundef %53) #16
  %55 = getelementptr inbounds nuw i8, ptr %0, i64 48
  store ptr %54, ptr %55, align 8, !tbaa !59
  %56 = icmp eq ptr %54, null
  br i1 %56, label %57, label %61

57:                                               ; preds = %51
  %58 = load i64, ptr @H5E_ERROR_g, align 8, !tbaa !10
  %59 = load i64, ptr @H5E_CANTCOPY_g, align 8, !tbaa !10
  %60 = tail call i32 (ptr, ptr, i32, i64, i64, ptr, ...) @H5E_printf_stack(ptr noundef nonnull @.str.1, ptr noundef nonnull @__func__.H5E__copy_stack_entry, i32 noundef 1676, i64 noundef %58, i64 noundef %59, ptr noundef nonnull @.str.402)
  br label %81

61:                                               ; preds = %51
  %62 = getelementptr inbounds nuw i8, ptr %1, i64 40
  %63 = load ptr, ptr %62, align 8, !tbaa !60
  %64 = tail call noalias ptr @strdup(ptr noundef %63) #16
  %65 = getelementptr inbounds nuw i8, ptr %0, i64 40
  store ptr %64, ptr %65, align 8, !tbaa !60
  %66 = icmp eq ptr %64, null
  br i1 %66, label %67, label %71

67:                                               ; preds = %61
  %68 = load i64, ptr @H5E_ERROR_g, align 8, !tbaa !10
  %69 = load i64, ptr @H5E_CANTCOPY_g, align 8, !tbaa !10
  %70 = tail call i32 (ptr, ptr, i32, i64, i64, ptr, ...) @H5E_printf_stack(ptr noundef nonnull @.str.1, ptr noundef nonnull @__func__.H5E__copy_stack_entry, i32 noundef 1678, i64 noundef %68, i64 noundef %69, ptr noundef nonnull @.str.403)
  br label %81

71:                                               ; preds = %61, %9
  %72 = getelementptr inbounds nuw i8, ptr %1, i64 56
  %73 = load ptr, ptr %72, align 8, !tbaa !61
  %74 = tail call noalias ptr @strdup(ptr noundef %73) #16
  %75 = getelementptr inbounds nuw i8, ptr %0, i64 56
  store ptr %74, ptr %75, align 8, !tbaa !61
  %76 = icmp eq ptr %74, null
  br i1 %76, label %77, label %81

77:                                               ; preds = %71
  %78 = load i64, ptr @H5E_ERROR_g, align 8, !tbaa !10
  %79 = load i64, ptr @H5E_CANTCOPY_g, align 8, !tbaa !10
  %80 = tail call i32 (ptr, ptr, i32, i64, i64, ptr, ...) @H5E_printf_stack(ptr noundef nonnull @.str.1, ptr noundef nonnull @__func__.H5E__copy_stack_entry, i32 noundef 1681, i64 noundef %78, i64 noundef %79, ptr noundef nonnull @.str.404)
  br label %81

81:                                               ; preds = %19, %33, %47, %57, %67, %77, %71, %2
  %.0 = phi i32 [ -1, %19 ], [ -1, %33 ], [ -1, %47 ], [ -1, %57 ], [ -1, %67 ], [ -1, %77 ], [ 0, %71 ], [ 0, %2 ]
  ret i32 %.0
}